target datalayout = "e-m:e-p270:32:32-p271:32:32-p272:64:64-i64:64-i128:128-f80:128-n8:16:32:64-S128"
target triple = "x86_64-pc-linux-gnu"

%struct.llhttp__internal_s = type { i32, ptr, ptr, i32, ptr, ptr, ptr, ptr, i64, i8, i8, i8, i8, i8, i16, i8, i8, i16, i16, i8, ptr }
%struct.llhttp_settings_s = type { ptr, ptr, ptr, ptr, ptr, ptr, ptr, ptr, ptr, ptr, ptr, ptr, ptr, ptr, ptr, ptr, ptr, ptr, ptr, ptr, ptr, ptr, ptr }

@.str = private unnamed_addr constant [18 x i8] c"Invalid EOF state\00", align 1

; Function Attrs: nounwind uwtable
define i32 @llhttp_finish(ptr noundef %0) #0 {
  %2 = alloca i32, align 4
  %3 = alloca ptr, align 8
  %4 = alloca i32, align 4
  %5 = alloca i32, align 4
  %6 = alloca ptr, align 8
  store ptr %0, ptr %3, align 8, !tbaa !3
  call void @llvm.lifetime.start.p0(i64 4, ptr %4) #6
  %7 = load ptr, ptr %3, align 8, !tbaa !3
  %8 = getelementptr inbounds nuw %struct.llhttp__internal_s, ptr %7, i32 0, i32 3
  %9 = load i32, ptr %8, align 8, !tbaa !29
  %10 = icmp ne i32 %9, 0
  br i1 %10, label %11, label %12

11:                                               ; preds = %1
  store i32 0, ptr %2, align 4
  store i32 1, ptr %5, align 4
  br label %51

12:                                               ; preds = %1
  %13 = load ptr, ptr %3, align 8, !tbaa !3
  %14 = getelementptr inbounds nuw %struct.llhttp__internal_s, ptr %13, i32 0, i32 16
  %15 = load i8, ptr %14, align 1, !tbaa !30
  %16 = zext i8 %15 to i32
  switch i32 %16, label %50 [
    i32 1, label %17
    i32 0, label %46
    i32 2, label %47
  ]

17:                                               ; preds = %12
  br label %18

18:                                               ; preds = %17
  call void @llvm.lifetime.start.p0(i64 8, ptr %6) #6
  %19 = load ptr, ptr %3, align 8, !tbaa !3
  %20 = getelementptr inbounds nuw %struct.llhttp__internal_s, ptr %19, i32 0, i32 20
  %21 = load ptr, ptr %20, align 8, !tbaa !17
  store ptr %21, ptr %6, align 8, !tbaa !10
  %22 = load ptr, ptr %6, align 8, !tbaa !10
  %23 = icmp eq ptr %22, null
  br i1 %23, label %29, label %24

24:                                               ; preds = %18
  %25 = load ptr, ptr %6, align 8, !tbaa !10
  %26 = getelementptr inbounds nuw %struct.llhttp_settings_s, ptr %25, i32 0, i32 11
  %27 = load ptr, ptr %26, align 8, !tbaa !31
  %28 = icmp eq ptr %27, null
  br i1 %28, label %29, label %30

29:                                               ; preds = %24, %18
  store i32 0, ptr %4, align 4, !tbaa !8
  store i32 3, ptr %5, align 4
  br label %36

30:                                               ; preds = %24
  %31 = load ptr, ptr %6, align 8, !tbaa !10
  %32 = getelementptr inbounds nuw %struct.llhttp_settings_s, ptr %31, i32 0, i32 11
  %33 = load ptr, ptr %32, align 8, !tbaa !31
  %34 = load ptr, ptr %3, align 8, !tbaa !3
  %35 = call i32 %33(ptr noundef %34)
  store i32 %35, ptr %4, align 4, !tbaa !8
  store i32 0, ptr %5, align 4
  br label %36

36:                                               ; preds = %30, %29
  call void @llvm.lifetime.end.p0(i64 8, ptr %6) #6
  %37 = load i32, ptr %5, align 4
  switch i32 %37, label %53 [
    i32 0, label %38
    i32 3, label %40
  ]

38:                                               ; preds = %36
  br label %39

39:                                               ; preds = %38
  br label %40

40:                                               ; preds = %39, %36
  %41 = load i32, ptr %4, align 4, !tbaa !8
  %42 = icmp ne i32 %41, 0
  br i1 %42, label %43, label %45

43:                                               ; preds = %40
  %44 = load i32, ptr %4, align 4, !tbaa !8
  store i32 %44, ptr %2, align 4
  store i32 1, ptr %5, align 4
  br label %51

45:                                               ; preds = %40
  br label %46

46:                                               ; preds = %12, %45
  store i32 0, ptr %2, align 4
  store i32 1, ptr %5, align 4
  br label %51

47:                                               ; preds = %12
  %48 = load ptr, ptr %3, align 8, !tbaa !3
  %49 = getelementptr inbounds nuw %struct.llhttp__internal_s, ptr %48, i32 0, i32 4
  store ptr @.str, ptr %49, align 8, !tbaa !33
  store i32 14, ptr %2, align 4
  store i32 1, ptr %5, align 4
  br label %51

50:                                               ; preds = %12
  call void @abort() #7
  unreachable

51:                                               ; preds = %47, %46, %43, %11
  call void @llvm.lifetime.end.p0(i64 4, ptr %4) #6
  %52 = load i32, ptr %2, align 4
  ret i32 %52

53:                                               ; preds = %36
  unreachable
}