; Function Attrs: nounwind uwtable
define i32 @llhttp_finish(ptr noundef %0) local_unnamed_addr #0 {
  %2 = getelementptr inbounds nuw i8, ptr %0, i64 24
  %3 = load i32, ptr %2, align 8, !tbaa !20
  %.not = icmp eq i32 %3, 0
  br i1 %.not, label %4, label %20

4:                                                ; preds = %1
  %5 = getelementptr inbounds nuw i8, ptr %0, i64 81
  %6 = load i8, ptr %5, align 1, !tbaa !21
  switch i8 %6, label %19 [
    i8 1, label %7
    i8 0, label %.thread
    i8 2, label %17
  ]

7:                                                ; preds = %4
  %8 = getelementptr inbounds nuw i8, ptr %0, i64 88
  %9 = load ptr, ptr %8, align 8, !tbaa !12
  %10 = icmp eq ptr %9, null
  br i1 %10, label %.thread, label %11

11:                                               ; preds = %7
  %12 = getelementptr inbounds nuw i8, ptr %9, i64 88
  %13 = load ptr, ptr %12, align 8, !tbaa !22
  %14 = icmp eq ptr %13, null
  br i1 %14, label %.thread, label %15

15:                                               ; preds = %11
  %16 = tail call i32 %13(ptr noundef nonnull %0) #10
  %.not13 = icmp eq i32 %16, 0
  br i1 %.not13, label %.thread, label %20

.thread:                                          ; preds = %7, %11, %15, %4
  br label %20

17:                                               ; preds = %4
  %18 = getelementptr inbounds nuw i8, ptr %0, i64 32
  store ptr @.str, ptr %18, align 8, !tbaa !24
  br label %20

19:                                               ; preds = %4
  tail call void @abort() #11
  unreachable

20:                                               ; preds = %15, %1, %17, %.thread
  %.0 = phi i32 [ 14, %17 ], [ 0, %.thread ], [ 0, %1 ], [ %16, %15 ]
  ret i32 %.0
}